target datalayout = "e-m:e-p270:32:32-p271:32:32-p272:64:64-i64:64-i128:128-f80:128-n8:16:32:64-S128"
target triple = "x86_64-pc-linux-gnu"

%struct.pack_info = type { float, i32, i32, i8, i32, ptr, ptr, i32 }
%struct.boxf = type { %struct.pointf_s, %struct.pointf_s }
%struct.pointf_s = type { double, double }
%struct.ginfo = type { i32, ptr, i32, i64 }

@Verbose = external global i8, align 1
@stderr = external global ptr, align 8
@.str.17 = private unnamed_addr constant [16 x i8] c"step size = %d\0A\00", align 1
@.str.18 = private unnamed_addr constant [20 x i8] c"pos[%zu] %.0f %.0f\0A\00", align 1
@.str.27 = private unnamed_addr constant [58 x i8] c"integer overflow when trying to allocate %zu * %zu bytes\0A\00", align 1
@.str.28 = private unnamed_addr constant [49 x i8] c"out of memory when trying to allocate %zu bytes\0A\00", align 1
@.str.32 = private unnamed_addr constant [1 x i8] zeroinitializer, align 1

; Function Attrs: inlinehint nounwind uwtable
define internal ptr @gv_calloc(i64 noundef %0, i64 noundef %1) #2 {
  %3 = alloca i64, align 8
  %4 = alloca i64, align 8
  %5 = alloca ptr, align 8
  store i64 %0, ptr %3, align 8, !tbaa !3
  store i64 %1, ptr %4, align 8, !tbaa !3
  %6 = load i64, ptr %3, align 8, !tbaa !3
  %7 = icmp ugt i64 %6, 0
  br i1 %7, label %8, label %18

8:                                                ; preds = %2
  %9 = load i64, ptr %3, align 8, !tbaa !3
  %10 = udiv i64 -1, %9
  %11 = load i64, ptr %4, align 8, !tbaa !3
  %12 = icmp ult i64 %10, %11
  br i1 %12, label %13, label %18

13:                                               ; preds = %8
  %14 = load ptr, ptr @stderr, align 8, !tbaa !67
  %15 = load i64, ptr %3, align 8, !tbaa !3
  %16 = load i64, ptr %4, align 8, !tbaa !3
  %17 = call i32 (ptr, ptr, ...) @fprintf(ptr noundef %14, ptr noundef @.str.27, i64 noundef %15, i64 noundef %16) #12
  call void @graphviz_exit(i32 noundef 1) #13
  unreachable

18:                                               ; preds = %8, %2
  call void @llvm.lifetime.start.p0(i64 8, ptr %5) #12
  %19 = load i64, ptr %3, align 8, !tbaa !3
  %20 = load i64, ptr %4, align 8, !tbaa !3
  %21 = call noalias ptr @calloc(i64 noundef %19, i64 noundef %20) #14
  store ptr %21, ptr %5, align 8, !tbaa !12
  %22 = load i64, ptr %3, align 8, !tbaa !3
  %23 = icmp ugt i64 %22, 0
  br i1 %23, label %24, label %36

24:                                               ; preds = %18
  %25 = load i64, ptr %4, align 8, !tbaa !3
  %26 = icmp ugt i64 %25, 0
  br i1 %26, label %27, label %36

27:                                               ; preds = %24
  %28 = load ptr, ptr %5, align 8, !tbaa !12
  %29 = icmp eq ptr %28, null
  br i1 %29, label %30, label %36

30:                                               ; preds = %27
  %31 = load ptr, ptr @stderr, align 8, !tbaa !67
  %32 = load i64, ptr %3, align 8, !tbaa !3
  %33 = load i64, ptr %4, align 8, !tbaa !3
  %34 = mul i64 %32, %33
  %35 = call i32 (ptr, ptr, ...) @fprintf(ptr noundef %31, ptr noundef @.str.28, i64 noundef %34) #12
  call void @graphviz_exit(i32 noundef 1) #13
  unreachable

36:                                               ; preds = %27, %24, %18
  %37 = load ptr, ptr %5, align 8, !tbaa !12
  call void @llvm.lifetime.end.p0(i64 8, ptr %5) #12
  ret ptr %37
}

; Function Attrs: nounwind uwtable
define internal ptr @polyRects(i64 noundef %0, ptr noundef %1, ptr noundef %2) #0 {
  %4 = alloca ptr, align 8
  %5 = alloca i64, align 8
  %6 = alloca ptr, align 8
  %7 = alloca ptr, align 8
  %8 = alloca i32, align 4
  %9 = alloca ptr, align 8
  %10 = alloca i32, align 4
  %11 = alloca ptr, align 8
  %12 = alloca i64, align 8
  %13 = alloca %struct.pointf_s, align 8
  %14 = alloca ptr, align 8
  %15 = alloca i64, align 8
  %16 = alloca ptr, align 8
  %17 = alloca i64, align 8
  %18 = alloca i64, align 8
  %19 = alloca i64, align 8
  store i64 %0, ptr %5, align 8, !tbaa !3
  store ptr %1, ptr %6, align 8, !tbaa !12
  store ptr %2, ptr %7, align 8, !tbaa !12
  call void @llvm.lifetime.start.p0(i64 4, ptr %8) #12
  call void @llvm.lifetime.start.p0(i64 8, ptr %9) #12
  %20 = load i64, ptr %5, align 8, !tbaa !3
  %21 = load ptr, ptr %6, align 8, !tbaa !12
  %22 = load ptr, ptr %7, align 8, !tbaa !12
  %23 = getelementptr inbounds nuw %struct.pack_info, ptr %22, i32 0, i32 2
  %24 = load i32, ptr %23, align 8, !tbaa !71
  %25 = call i32 @computeStep(i64 noundef %20, ptr noundef %21, i32 noundef %24)
  store i32 %25, ptr %8, align 4, !tbaa !35
  %26 = load i8, ptr @Verbose, align 1, !tbaa !66
  %27 = icmp ne i8 %26, 0
  br i1 %27, label %28, label %32

28:                                               ; preds = %3
  %29 = load ptr, ptr @stderr, align 8, !tbaa !67
  %30 = load i32, ptr %8, align 4, !tbaa !35
  %31 = call i32 (ptr, ptr, ...) @fprintf(ptr noundef %29, ptr noundef @.str.17, i32 noundef %30) #12
  br label %32

32:                                               ; preds = %28, %3
  %33 = load i32, ptr %8, align 4, !tbaa !35
  %34 = icmp sle i32 %33, 0
  br i1 %34, label %35, label %36

35:                                               ; preds = %32
  store ptr null, ptr %4, align 8
  store i32 1, ptr %10, align 4
  br label %169

36:                                               ; preds = %32
  call void @llvm.lifetime.start.p0(i64 8, ptr %11) #12
  %37 = load i64, ptr %5, align 8, !tbaa !3
  %38 = call ptr @gv_calloc(i64 noundef %37, i64 noundef 32)
  store ptr %38, ptr %11, align 8, !tbaa !12
  call void @llvm.lifetime.start.p0(i64 8, ptr %12) #12
  store i64 0, ptr %12, align 8, !tbaa !3
  br label %39

39:                                               ; preds = %66, %36
  %40 = load i64, ptr %12, align 8, !tbaa !3
  %41 = load i64, ptr %5, align 8, !tbaa !3
  %42 = icmp ult i64 %40, %41
  br i1 %42, label %44, label %43

43:                                               ; preds = %39
  store i32 2, ptr %10, align 4
  call void @llvm.lifetime.end.p0(i64 8, ptr %12) #12
  br label %69

44:                                               ; preds = %39
  %45 = load i64, ptr %12, align 8, !tbaa !3
  %46 = load ptr, ptr %11, align 8, !tbaa !12
  %47 = load i64, ptr %12, align 8, !tbaa !3
  %48 = getelementptr inbounds nuw %struct.ginfo, ptr %46, i64 %47
  %49 = getelementptr inbounds nuw %struct.ginfo, ptr %48, i32 0, i32 3
  store i64 %45, ptr %49, align 8, !tbaa !72
  %50 = load ptr, ptr %6, align 8, !tbaa !12
  %51 = load i64, ptr %12, align 8, !tbaa !3
  %52 = getelementptr inbounds nuw %struct.boxf, ptr %50, i64 %51
  %53 = load ptr, ptr %11, align 8, !tbaa !12
  %54 = load i64, ptr %12, align 8, !tbaa !3
  %55 = getelementptr inbounds nuw %struct.ginfo, ptr %53, i64 %54
  %56 = load i32, ptr %8, align 4, !tbaa !35
  %57 = load ptr, ptr %7, align 8, !tbaa !12
  %58 = getelementptr inbounds nuw %struct.pack_info, ptr %57, i32 0, i32 2
  %59 = load i32, ptr %58, align 8, !tbaa !71
  %60 = getelementptr inbounds nuw %struct.pointf_s, ptr %13, i32 0, i32 0
  store double 0.000000e+00, ptr %60, align 8, !tbaa !57
  %61 = getelementptr inbounds nuw %struct.pointf_s, ptr %13, i32 0, i32 1
  store double 0.000000e+00, ptr %61, align 8, !tbaa !59
  %62 = getelementptr inbounds nuw { double, double }, ptr %13, i32 0, i32 0
  %63 = load double, ptr %62, align 8
  %64 = getelementptr inbounds nuw { double, double }, ptr %13, i32 0, i32 1
  %65 = load double, ptr %64, align 8
  call void @genBox(ptr noundef byval(%struct.boxf) align 8 %52, ptr noundef %55, i32 noundef %56, i32 noundef %59, double %63, double %65, ptr noundef @.str.32)
  br label %66

66:                                               ; preds = %44
  %67 = load i64, ptr %12, align 8, !tbaa !3
  %68 = add i64 %67, 1
  store i64 %68, ptr %12, align 8, !tbaa !3
  br label %39, !llvm.loop !97

69:                                               ; preds = %43
  call void @llvm.lifetime.start.p0(i64 8, ptr %14) #12
  %70 = load i64, ptr %5, align 8, !tbaa !3
  %71 = call ptr @gv_calloc(i64 noundef %70, i64 noundef 8)
  store ptr %71, ptr %14, align 8, !tbaa !12
  call void @llvm.lifetime.start.p0(i64 8, ptr %15) #12
  store i64 0, ptr %15, align 8, !tbaa !3
  br label %72

72:                                               ; preds = %84, %69
  %73 = load i64, ptr %15, align 8, !tbaa !3
  %74 = load i64, ptr %5, align 8, !tbaa !3
  %75 = icmp ult i64 %73, %74
  br i1 %75, label %77, label %76

76:                                               ; preds = %72
  store i32 5, ptr %10, align 4
  call void @llvm.lifetime.end.p0(i64 8, ptr %15) #12
  br label %87

77:                                               ; preds = %72
  %78 = load ptr, ptr %11, align 8, !tbaa !12
  %79 = load i64, ptr %15, align 8, !tbaa !3
  %80 = getelementptr inbounds nuw %struct.ginfo, ptr %78, i64 %79
  %81 = load ptr, ptr %14, align 8, !tbaa !12
  %82 = load i64, ptr %15, align 8, !tbaa !3
  %83 = getelementptr inbounds nuw ptr, ptr %81, i64 %82
  store ptr %80, ptr %83, align 8, !tbaa !12
  br label %84

84:                                               ; preds = %77
  %85 = load i64, ptr %15, align 8, !tbaa !3
  %86 = add i64 %85, 1
  store i64 %86, ptr %15, align 8, !tbaa !3
  br label %72, !llvm.loop !98

87:                                               ; preds = %76
  %88 = load ptr, ptr %14, align 8, !tbaa !12
  %89 = load i64, ptr %5, align 8, !tbaa !3
  call void @qsort(ptr noundef %88, i64 noundef %89, i64 noundef 8, ptr noundef @cmpf)
  %90 = call ptr @newPS()
  store ptr %90, ptr %9, align 8, !tbaa !76
  call void @llvm.lifetime.start.p0(i64 8, ptr %16) #12
  %91 = load i64, ptr %5, align 8, !tbaa !3
  %92 = call ptr @gv_calloc(i64 noundef %91, i64 noundef 16)
  store ptr %92, ptr %16, align 8, !tbaa !13
  call void @llvm.lifetime.start.p0(i64 8, ptr %17) #12
  store i64 0, ptr %17, align 8, !tbaa !3
  br label %93

93:                                               ; preds = %118, %87
  %94 = load i64, ptr %17, align 8, !tbaa !3
  %95 = load i64, ptr %5, align 8, !tbaa !3
  %96 = icmp ult i64 %94, %95
  br i1 %96, label %98, label %97

97:                                               ; preds = %93
  store i32 8, ptr %10, align 4
  call void @llvm.lifetime.end.p0(i64 8, ptr %17) #12
  br label %121

98:                                               ; preds = %93
  %99 = load i64, ptr %17, align 8, !tbaa !3
  %100 = load ptr, ptr %14, align 8, !tbaa !12
  %101 = load i64, ptr %17, align 8, !tbaa !3
  %102 = getelementptr inbounds nuw ptr, ptr %100, i64 %101
  %103 = load ptr, ptr %102, align 8, !tbaa !12
  %104 = load ptr, ptr %9, align 8, !tbaa !76
  %105 = load ptr, ptr %16, align 8, !tbaa !13
  %106 = load ptr, ptr %14, align 8, !tbaa !12
  %107 = load i64, ptr %17, align 8, !tbaa !3
  %108 = getelementptr inbounds nuw ptr, ptr %106, i64 %107
  %109 = load ptr, ptr %108, align 8, !tbaa !12
  %110 = getelementptr inbounds nuw %struct.ginfo, ptr %109, i32 0, i32 3
  %111 = load i64, ptr %110, align 8, !tbaa !72
  %112 = getelementptr inbounds nuw %struct.pointf_s, ptr %105, i64 %111
  %113 = load i32, ptr %8, align 4, !tbaa !35
  %114 = load ptr, ptr %7, align 8, !tbaa !12
  %115 = getelementptr inbounds nuw %struct.pack_info, ptr %114, i32 0, i32 2
  %116 = load i32, ptr %115, align 8, !tbaa !71
  %117 = load ptr, ptr %6, align 8, !tbaa !12
  call void @placeGraph(i64 noundef %99, ptr noundef %103, ptr noundef %104, ptr noundef %112, i32 noundef %113, i32 noundef %116, ptr noundef %117)
  br label %118

118:                                              ; preds = %98
  %119 = load i64, ptr %17, align 8, !tbaa !3
  %120 = add i64 %119, 1
  store i64 %120, ptr %17, align 8, !tbaa !3
  br label %93, !llvm.loop !99

121:                                              ; preds = %97
  %122 = load ptr, ptr %14, align 8, !tbaa !12
  call void @free(ptr noundef %122) #12
  call void @llvm.lifetime.start.p0(i64 8, ptr %18) #12
  store i64 0, ptr %18, align 8, !tbaa !3
  br label %123

123:                                              ; preds = %134, %121
  %124 = load i64, ptr %18, align 8, !tbaa !3
  %125 = load i64, ptr %5, align 8, !tbaa !3
  %126 = icmp ult i64 %124, %125
  br i1 %126, label %128, label %127

127:                                              ; preds = %123
  store i32 11, ptr %10, align 4
  call void @llvm.lifetime.end.p0(i64 8, ptr %18) #12
  br label %137

128:                                              ; preds = %123
  %129 = load ptr, ptr %11, align 8, !tbaa !12
  %130 = load i64, ptr %18, align 8, !tbaa !3
  %131 = getelementptr inbounds nuw %struct.ginfo, ptr %129, i64 %130
  %132 = getelementptr inbounds nuw %struct.ginfo, ptr %131, i32 0, i32 1
  %133 = load ptr, ptr %132, align 8, !tbaa !81
  call void @free(ptr noundef %133) #12
  br label %134

134:                                              ; preds = %128
  %135 = load i64, ptr %18, align 8, !tbaa !3
  %136 = add i64 %135, 1
  store i64 %136, ptr %18, align 8, !tbaa !3
  br label %123, !llvm.loop !100

137:                                              ; preds = %127
  %138 = load ptr, ptr %11, align 8, !tbaa !12
  call void @free(ptr noundef %138) #12
  %139 = load ptr, ptr %9, align 8, !tbaa !76
  call void @freePS(ptr noundef %139)
  %140 = load i8, ptr @Verbose, align 1, !tbaa !66
  %141 = zext i8 %140 to i32
  %142 = icmp sgt i32 %141, 1
  br i1 %142, label %143, label %167

143:                                              ; preds = %137
  call void @llvm.lifetime.start.p0(i64 8, ptr %19) #12
  store i64 0, ptr %19, align 8, !tbaa !3
  br label %144

144:                                              ; preds = %163, %143
  %145 = load i64, ptr %19, align 8, !tbaa !3
  %146 = load i64, ptr %5, align 8, !tbaa !3
  %147 = icmp ult i64 %145, %146
  br i1 %147, label %149, label %148

148:                                              ; preds = %144
  store i32 14, ptr %10, align 4
  call void @llvm.lifetime.end.p0(i64 8, ptr %19) #12
  br label %166

149:                                              ; preds = %144
  %150 = load ptr, ptr @stderr, align 8, !tbaa !67
  %151 = load i64, ptr %19, align 8, !tbaa !3
  %152 = load ptr, ptr %16, align 8, !tbaa !13
  %153 = load i64, ptr %19, align 8, !tbaa !3
  %154 = getelementptr inbounds nuw %struct.pointf_s, ptr %152, i64 %153
  %155 = getelementptr inbounds nuw %struct.pointf_s, ptr %154, i32 0, i32 0
  %156 = load double, ptr %155, align 8, !tbaa !57
  %157 = load ptr, ptr %16, align 8, !tbaa !13
  %158 = load i64, ptr %19, align 8, !tbaa !3
  %159 = getelementptr inbounds nuw %struct.pointf_s, ptr %157, i64 %158
  %160 = getelementptr inbounds nuw %struct.pointf_s, ptr %159, i32 0, i32 1
  %161 = load double, ptr %160, align 8, !tbaa !59
  %162 = call i32 (ptr, ptr, ...) @fprintf(ptr noundef %150, ptr noundef @.str.18, i64 noundef %151, double noundef %156, double noundef %161) #12
  br label %163

163:                                              ; preds = %149
  %164 = load i64, ptr %19, align 8, !tbaa !3
  %165 = add i64 %164, 1
  store i64 %165, ptr %19, align 8, !tbaa !3
  br label %144, !llvm.loop !101

166:                                              ; preds = %148
  br label %167

167:                                              ; preds = %166, %137
  %168 = load ptr, ptr %16, align 8, !tbaa !13
  store ptr %168, ptr %4, align 8
  store i32 1, ptr %10, align 4
  call void @llvm.lifetime.end.p0(i64 8, ptr %16) #12
  call void @llvm.lifetime.end.p0(i64 8, ptr %14) #12
  call void @llvm.lifetime.end.p0(i64 8, ptr %11) #12
  br label %169

169:                                              ; preds = %167, %35
  call void @llvm.lifetime.end.p0(i64 8, ptr %9) #12
  call void @llvm.lifetime.end.p0(i64 4, ptr %8) #12
  %170 = load ptr, ptr %4, align 8
  ret ptr %170
}

; Function Attrs: nounwind uwtable
define ptr @putRects(i64 noundef %0, ptr noundef %1, ptr noundef %2) #0 {
  %4 = alloca ptr, align 8
  %5 = alloca i64, align 8
  %6 = alloca ptr, align 8
  %7 = alloca ptr, align 8
  store i64 %0, ptr %5, align 8, !tbaa !3
  store ptr %1, ptr %6, align 8, !tbaa !12
  store ptr %2, ptr %7, align 8, !tbaa !12
  %8 = load i64, ptr %5, align 8, !tbaa !3
  %9 = icmp eq i64 %8, 0
  br i1 %9, label %10, label %11

10:                                               ; preds = %3
  store ptr null, ptr %4, align 8
  br label %43

11:                                               ; preds = %3
  %12 = load ptr, ptr %7, align 8, !tbaa !12
  %13 = getelementptr inbounds nuw %struct.pack_info, ptr %12, i32 0, i32 4
  %14 = load i32, ptr %13, align 8, !tbaa !15
  %15 = icmp eq i32 %14, 2
  br i1 %15, label %21, label %16

16:                                               ; preds = %11
  %17 = load ptr, ptr %7, align 8, !tbaa !12
  %18 = getelementptr inbounds nuw %struct.pack_info, ptr %17, i32 0, i32 4
  %19 = load i32, ptr %18, align 8, !tbaa !15
  %20 = icmp eq i32 %19, 1
  br i1 %20, label %21, label %22

21:                                               ; preds = %16, %11
  store ptr null, ptr %4, align 8
  br label %43

22:                                               ; preds = %16
  %23 = load ptr, ptr %7, align 8, !tbaa !12
  %24 = getelementptr inbounds nuw %struct.pack_info, ptr %23, i32 0, i32 4
  %25 = load i32, ptr %24, align 8, !tbaa !15
  %26 = icmp eq i32 %25, 3
  br i1 %26, label %27, label %32

27:                                               ; preds = %22
  %28 = load i64, ptr %5, align 8, !tbaa !3
  %29 = load ptr, ptr %6, align 8, !tbaa !12
  %30 = load ptr, ptr %7, align 8, !tbaa !12
  %31 = call ptr @polyRects(i64 noundef %28, ptr noundef %29, ptr noundef %30)
  store ptr %31, ptr %4, align 8
  br label %43

32:                                               ; preds = %22
  %33 = load ptr, ptr %7, align 8, !tbaa !12
  %34 = getelementptr inbounds nuw %struct.pack_info, ptr %33, i32 0, i32 4
  %35 = load i32, ptr %34, align 8, !tbaa !15
  %36 = icmp eq i32 %35, 4
  br i1 %36, label %37, label %42

37:                                               ; preds = %32
  %38 = load i64, ptr %5, align 8, !tbaa !3
  %39 = load ptr, ptr %6, align 8, !tbaa !12
  %40 = load ptr, ptr %7, align 8, !tbaa !12
  %41 = call ptr @arrayRects(i64 noundef %38, ptr noundef %39, ptr noundef %40)
  store ptr %41, ptr %4, align 8
  br label %43

42:                                               ; preds = %32
  store ptr null, ptr %4, align 8
  br label %43

43:                                               ; preds = %42, %37, %27, %21, %10
  %44 = load ptr, ptr %4, align 8
  ret ptr %44
}