; Function Attrs: nounwind uwtable
define noalias noundef ptr @putRects(i64 noundef %0, ptr noundef readonly captures(none) %1, ptr noundef readonly captures(none) %2) local_unnamed_addr #0 {
  %4 = icmp eq i64 %0, 0
  br i1 %4, label %polyRects.exit, label %5

5:                                                ; preds = %3
  %6 = getelementptr inbounds nuw i8, ptr %2, i64 16
  %7 = load i32, ptr %6, align 8, !tbaa !3
  switch i32 %7, label %polyRects.exit [
    i32 4, label %74
    i32 3, label %8
  ]

8:                                                ; preds = %5
  %9 = getelementptr inbounds nuw i8, ptr %2, i64 8
  %10 = load i32, ptr %9, align 8, !tbaa !50
  %11 = tail call fastcc i32 @computeStep(i64 noundef range(i64 1, 0) %0, ptr noundef readonly %1, i32 noundef %10)
  %12 = load i8, ptr @Verbose, align 1, !tbaa !47
  %.not.i = icmp eq i8 %12, 0
  br i1 %.not.i, label %16, label %13

13:                                               ; preds = %8
  %14 = load ptr, ptr @stderr, align 8, !tbaa !14
  %15 = tail call i32 (ptr, ptr, ...) @fprintf(ptr noundef %14, ptr noundef nonnull @.str.17, i32 noundef %11) #20
  br label %16

16:                                               ; preds = %13, %8
  %17 = icmp slt i32 %11, 1
  br i1 %17, label %polyRects.exit, label %18

18:                                               ; preds = %16
  %mul.ov.i.i = icmp ugt i64 %0, 576460752303423487
  br i1 %mul.ov.i.i, label %19, label %22

19:                                               ; preds = %18
  %20 = load ptr, ptr @stderr, align 8, !tbaa !14
  %21 = tail call i32 (ptr, ptr, ...) @fprintf(ptr noundef %20, ptr noundef nonnull @.str.27, i64 noundef range(i64 1, 0) %0, i64 noundef 32) #20
  tail call fastcc void @graphviz_exit() #21
  unreachable

22:                                               ; preds = %18
  %23 = tail call noalias ptr @calloc(i64 noundef range(i64 1, 0) %0, i64 noundef 32) #22
  %24 = icmp eq ptr %23, null
  br i1 %24, label %25, label %gv_calloc.exit.i

25:                                               ; preds = %22
  %26 = load ptr, ptr @stderr, align 8, !tbaa !14
  %27 = shl nuw i64 %0, 5
  %28 = tail call i32 (ptr, ptr, ...) @fprintf(ptr noundef %26, ptr noundef nonnull @.str.28, i64 noundef %27) #20
  tail call fastcc void @graphviz_exit() #21
  unreachable

29:                                               ; preds = %gv_calloc.exit.i
  %30 = tail call noalias ptr @calloc(i64 noundef range(i64 1, 0) %0, i64 noundef 8) #22
  %31 = icmp eq ptr %30, null
  br i1 %31, label %32, label %gv_calloc.exit68.i

32:                                               ; preds = %29
  %33 = load ptr, ptr @stderr, align 8, !tbaa !14
  %34 = shl nuw nsw i64 %0, 3
  %35 = tail call i32 (ptr, ptr, ...) @fprintf(ptr noundef %33, ptr noundef nonnull @.str.28, i64 noundef %34) #20
  tail call fastcc void @graphviz_exit() #21
  unreachable

gv_calloc.exit.i:                                 ; preds = %22, %gv_calloc.exit.i
  %.06372.i = phi i64 [ %40, %gv_calloc.exit.i ], [ 0, %22 ]
  %36 = getelementptr inbounds nuw %struct.ginfo, ptr %23, i64 %.06372.i
  %37 = getelementptr inbounds nuw i8, ptr %36, i64 24
  store i64 %.06372.i, ptr %37, align 8, !tbaa !54
  %38 = getelementptr inbounds nuw %struct.boxf, ptr %1, i64 %.06372.i
  %39 = load i32, ptr %9, align 8, !tbaa !50
  tail call fastcc void @genBox(ptr noundef byval(%struct.boxf) align 8 %38, ptr noundef nonnull %36, i32 noundef %11, i32 noundef %39, double 0.000000e+00, double 0.000000e+00, ptr noundef nonnull @.str.32)
  %40 = add nuw i64 %.06372.i, 1
  %exitcond.not.i = icmp eq i64 %40, %0
  br i1 %exitcond.not.i, label %29, label %gv_calloc.exit.i, !llvm.loop !122

41:                                               ; preds = %gv_calloc.exit68.i
  tail call void @qsort(ptr noundef nonnull %30, i64 noundef range(i64 1, 0) %0, i64 noundef 8, ptr noundef nonnull @cmpf) #19
  %42 = tail call ptr @newPS() #19
  %43 = tail call noalias ptr @calloc(i64 noundef range(i64 1, 0) %0, i64 noundef 16) #22
  %44 = icmp eq ptr %43, null
  br i1 %44, label %45, label %gv_calloc.exit71.i

45:                                               ; preds = %41
  %46 = load ptr, ptr @stderr, align 8, !tbaa !14
  %47 = shl nuw nsw i64 %0, 4
  %48 = tail call i32 (ptr, ptr, ...) @fprintf(ptr noundef %46, ptr noundef nonnull @.str.28, i64 noundef %47) #20
  tail call fastcc void @graphviz_exit() #21
  unreachable

gv_calloc.exit68.i:                               ; preds = %29, %gv_calloc.exit68.i
  %.06273.i = phi i64 [ %51, %gv_calloc.exit68.i ], [ 0, %29 ]
  %49 = getelementptr inbounds nuw %struct.ginfo, ptr %23, i64 %.06273.i
  %50 = getelementptr inbounds nuw ptr, ptr %30, i64 %.06273.i
  store ptr %49, ptr %50, align 8, !tbaa !66
  %51 = add nuw i64 %.06273.i, 1
  %exitcond77.not.i = icmp eq i64 %51, %0
  br i1 %exitcond77.not.i, label %41, label %gv_calloc.exit68.i, !llvm.loop !123

52:                                               ; preds = %gv_calloc.exit71.i
  tail call void @free(ptr noundef nonnull %30) #19
  br label %63

gv_calloc.exit71.i:                               ; preds = %41, %gv_calloc.exit71.i
  %.06074.i = phi i64 [ %59, %gv_calloc.exit71.i ], [ 0, %41 ]
  %53 = getelementptr inbounds nuw ptr, ptr %30, i64 %.06074.i
  %54 = load ptr, ptr %53, align 8, !tbaa !66
  %55 = getelementptr inbounds nuw i8, ptr %54, i64 24
  %56 = load i64, ptr %55, align 8, !tbaa !54
  %57 = getelementptr inbounds nuw %struct.pointf_s, ptr %43, i64 %56
  %58 = load i32, ptr %9, align 8, !tbaa !50
  tail call fastcc void @placeGraph(i64 noundef %.06074.i, ptr noundef %54, ptr noundef %42, ptr noundef nonnull %57, i32 noundef %11, i32 noundef %58, ptr noundef readonly %1)
  %59 = add nuw i64 %.06074.i, 1
  %exitcond78.not.i = icmp eq i64 %59, %0
  br i1 %exitcond78.not.i, label %52, label %gv_calloc.exit71.i, !llvm.loop !124

60:                                               ; preds = %63
  tail call void @free(ptr noundef nonnull %23) #19
  tail call void @freePS(ptr noundef %42) #19
  %61 = load i8, ptr @Verbose, align 1, !tbaa !47
  %62 = icmp ugt i8 %61, 1
  br i1 %62, label %.preheader.i, label %polyRects.exit

63:                                               ; preds = %63, %52
  %.05975.i = phi i64 [ 0, %52 ], [ %66, %63 ]
  %64 = getelementptr inbounds nuw %struct.ginfo, ptr %23, i64 %.05975.i, i32 1
  %65 = load ptr, ptr %64, align 8, !tbaa !91
  tail call void @free(ptr noundef %65) #19
  %66 = add nuw i64 %.05975.i, 1
  %exitcond79.not.i = icmp eq i64 %66, %0
  br i1 %exitcond79.not.i, label %60, label %63, !llvm.loop !125

.preheader.i:                                     ; preds = %60, %.preheader.i
  %.076.i = phi i64 [ %73, %.preheader.i ], [ 0, %60 ]
  %67 = load ptr, ptr @stderr, align 8, !tbaa !14
  %68 = getelementptr inbounds nuw %struct.pointf_s, ptr %43, i64 %.076.i
  %69 = load double, ptr %68, align 8, !tbaa !94
  %70 = getelementptr inbounds nuw i8, ptr %68, i64 8
  %71 = load double, ptr %70, align 8, !tbaa !95
  %72 = tail call i32 (ptr, ptr, ...) @fprintf(ptr noundef %67, ptr noundef nonnull @.str.18, i64 noundef %.076.i, double noundef %69, double noundef %71) #20
  %73 = add nuw i64 %.076.i, 1
  %exitcond80.not.i = icmp eq i64 %73, %0
  br i1 %exitcond80.not.i, label %polyRects.exit, label %.preheader.i, !llvm.loop !126

74:                                               ; preds = %5
  %75 = tail call fastcc ptr @arrayRects(i64 noundef %0, ptr noundef %1, ptr noundef nonnull %2)
  br label %polyRects.exit

polyRects.exit:                                   ; preds = %.preheader.i, %60, %16, %5, %3, %74
  %.0 = phi ptr [ %75, %74 ], [ null, %3 ], [ null, %5 ], [ null, %16 ], [ %43, %60 ], [ %43, %.preheader.i ]
  ret ptr %.0
}